; Function Attrs: mustprogress nofree norecurse nosync nounwind sspstrong willreturn memory(read, inaccessiblemem: none) uwtable
define dso_local i64 @virtio_queue_get_desc_addr(ptr noundef readonly captures(none) %vdev, i32 noundef %n) local_unnamed_addr #2 {
entry:
  %vq = getelementptr inbounds nuw i8, ptr %vdev, i64 232
  %0 = load ptr, ptr %vq, align 8
  %idxprom = sext i32 %n to i64
  %desc = getelementptr %struct.VirtQueue, ptr %0, i64 %idxprom, i32 0, i32 3
  %1 = load i64, ptr %desc, align 8
  ret i64 %1
}